target datalayout = "e-m:e-p270:32:32-p271:32:32-p272:64:64-i64:64-i128:128-f80:128-n8:16:32:64-S128"
target triple = "x86_64-unknown-linux-gnu"

%"class.std::__cxx11::basic_string" = type { %"struct.std::__cxx11::basic_string<char>::_Alloc_hider", i64, %union.anon }
%"struct.std::__cxx11::basic_string<char>::_Alloc_hider" = type { ptr }
%union.anon = type { i64, [8 x i8] }
%"class.rocksdb::(anonymous namespace)::FixedPrefixTransform" = type { %"class.rocksdb::SliceTransform", i64, %"class.std::__cxx11::basic_string" }
%"class.rocksdb::SliceTransform" = type { %"class.rocksdb::Customizable" }
%"class.rocksdb::Customizable" = type { %"class.rocksdb::Configurable" }
%"class.rocksdb::Configurable" = type { ptr, %"class.std::vector" }
%"class.std::vector" = type { %"struct.std::_Vector_base" }
%"struct.std::_Vector_base" = type { %"struct.std::_Vector_base<rocksdb::Configurable::RegisteredOptions, std::allocator<rocksdb::Configurable::RegisteredOptions>>::_Vector_impl" }
%"struct.std::_Vector_base<rocksdb::Configurable::RegisteredOptions, std::allocator<rocksdb::Configurable::RegisteredOptions>>::_Vector_impl" = type { %"struct.std::_Vector_base<rocksdb::Configurable::RegisteredOptions, std::allocator<rocksdb::Configurable::RegisteredOptions>>::_Vector_impl_data" }
%"struct.std::_Vector_base<rocksdb::Configurable::RegisteredOptions, std::allocator<rocksdb::Configurable::RegisteredOptions>>::_Vector_impl_data" = type { ptr, ptr, ptr }
%"class.rocksdb::Slice" = type { ptr, i64 }

; Function Attrs: mustprogress nounwind uwtable
define linkonce_odr noundef i64 @_ZNK7rocksdb5Slice4sizeEv(ptr noundef nonnull align 8 dereferenceable(16) %this) #3 comdat align 2 {
entry:
  %this.addr = alloca ptr, align 8
  store ptr %this, ptr %this.addr, align 8
  %this1 = load ptr, ptr %this.addr, align 8
  %size_ = getelementptr inbounds %"class.rocksdb::Slice", ptr %this1, i32 0, i32 1
  %0 = load i64, ptr %size_, align 8
  ret i64 %0
}

; Function Attrs: mustprogress uwtable
define internal noundef zeroext i1 @_ZNK7rocksdb12_GLOBAL__N_120FixedPrefixTransform7InRangeERKNS_5SliceE(ptr noundef nonnull align 8 dereferenceable(72) %this, ptr noundef nonnull align 8 dereferenceable(16) %dst) unnamed_addr #0 align 2 {
entry:
  %this.addr = alloca ptr, align 8
  %dst.addr = alloca ptr, align 8
  store ptr %this, ptr %this.addr, align 8
  store ptr %dst, ptr %dst.addr, align 8
  %this1 = load ptr, ptr %this.addr, align 8
  %0 = load ptr, ptr %dst.addr, align 8
  %call = call noundef i64 @_ZNK7rocksdb5Slice4sizeEv(ptr noundef nonnull align 8 dereferenceable(16) %0)
  %prefix_len_ = getelementptr inbounds %"class.rocksdb::(anonymous namespace)::FixedPrefixTransform", ptr %this1, i32 0, i32 1
  %1 = load i64, ptr %prefix_len_, align 8
  %cmp = icmp eq i64 %call, %1
  ret i1 %cmp
}